target datalayout = "e-m:e-p270:32:32-p271:32:32-p272:64:64-i64:64-i128:128-f80:128-n8:16:32:64-S128"
target triple = "x86_64-pc-linux-gnu"

@.str.4 = private unnamed_addr constant [13 x i8] c"Unknown (%u)\00", align 1
@.str.5 = private unnamed_addr constant [5 x i8] c": %s\00", align 1
@hf_wifi_dpp_status = internal global i32 0, align 4
@hf_wifi_dpp_init_hash = internal global i32 0, align 4
@hf_wifi_dpp_resp_hash = internal global i32 0, align 4
@hf_wifi_dpp_key_x = internal global i32 0, align 4
@hf_wifi_dpp_key_y = internal global i32 0, align 4
@hf_wifi_dpp_trans_id = internal global i32 0, align 4
@hf_wifi_dpp_finite_cyclic_group = internal global i32 0, align 4
@hf_wifi_dpp_capabilities = internal global i32 0, align 4
@hf_wifi_dpp_code_identifier = internal global i32 0, align 4
@hf_wifi_dpp_enc_key_attribute = internal global i32 0, align 4
@hf_wifi_dpp_primary_wrapped_data = internal global i32 0, align 4
@hf_wifi_dpp_connector_attr = internal global i32 0, align 4
@hf_wifi_dpp_initiator_nonce = internal global i32 0, align 4
@hf_wifi_dpp_operating_class = internal global i32 0, align 4
@hf_wifi_dpp_channel = internal global i32 0, align 4
@hf_wifi_dpp_protocol_version = internal global i32 0, align 4
@hf_wifi_dpp_a_nonce = internal global i32 0, align 4
@hf_wifi_dpp_e_prime_id = internal global i32 0, align 4
@hf_wifi_dpp_ie_attr_id = internal global i32 0, align 4
@hf_wifi_dpp_ie_attr_len = internal global i32 0, align 4
@hf_wifi_dpp_ie_generic = internal global i32 0, align 4
@ett_wifi_dpp_attribute = internal global i32 0, align 4
@ett_wifi_dpp_attr_header = internal global i32 0, align 4
@ett_wifi_dpp_attr_value = internal global i32 0, align 4
@.str.98 = private unnamed_addr constant [13 x i8] c"%s Attribute\00", align 1
@.str.99 = private unnamed_addr constant [17 x i8] c"Attribute Header\00", align 1
@.str.100 = private unnamed_addr constant [16 x i8] c"Attribute Value\00", align 1

; Function Attrs: nounwind uwtable
define internal i32 @dissect_wifi_dpp_attributes(ptr noundef %0, ptr noundef %1, ptr noundef %2, i32 noundef %3) #0 {
  %5 = alloca ptr, align 8
  %6 = alloca ptr, align 8
  %7 = alloca ptr, align 8
  %8 = alloca i32, align 4
  %9 = alloca ptr, align 8
  %10 = alloca i8, align 1
  %11 = alloca ptr, align 8
  %12 = alloca ptr, align 8
  %13 = alloca ptr, align 8
  %14 = alloca i16, align 2
  %15 = alloca i16, align 2
  %16 = alloca i32, align 4
  %17 = alloca i32, align 4
  store ptr %0, ptr %5, align 8
  store ptr %1, ptr %6, align 8
  store ptr %2, ptr %7, align 8
  store i32 %3, ptr %8, align 4
  store ptr null, ptr %9, align 8
  store i32 0, ptr %16, align 4
  %18 = load ptr, ptr %7, align 8
  %19 = load i32, ptr %8, align 4
  %20 = call i32 @tvb_reported_length_remaining(ptr noundef %18, i32 noundef %19)
  store i32 %20, ptr %17, align 4
  br label %21

21:                                               ; preds = %224, %4
  %22 = load i32, ptr %17, align 4
  %23 = icmp ne i32 %22, 0
  br i1 %23, label %24, label %239

24:                                               ; preds = %21
  %25 = load ptr, ptr %7, align 8
  %26 = load i32, ptr %8, align 4
  %27 = call zeroext i16 @tvb_get_guint16(ptr noundef %25, i32 noundef %26, i32 noundef -2147483648)
  store i16 %27, ptr %14, align 2
  %28 = load ptr, ptr %7, align 8
  %29 = load i32, ptr %8, align 4
  %30 = add i32 %29, 2
  %31 = call zeroext i16 @tvb_get_guint16(ptr noundef %28, i32 noundef %30, i32 noundef -2147483648)
  store i16 %31, ptr %15, align 2
  %32 = load ptr, ptr %6, align 8
  %33 = load ptr, ptr %7, align 8
  %34 = load i32, ptr %8, align 4
  %35 = load i16, ptr %15, align 2
  %36 = zext i16 %35 to i32
  %37 = add i32 %36, 4
  %38 = load i32, ptr @ett_wifi_dpp_attribute, align 4
  %39 = load i16, ptr %14, align 2
  %40 = zext i16 %39 to i32
  %41 = call ptr @val_to_str(i32 noundef %40, ptr noundef @dpp_ie_attr_ids, ptr noundef @.str.4)
  %42 = call ptr (ptr, ptr, i32, i32, i32, ptr, ptr, ...) @proto_tree_add_subtree_format(ptr noundef %32, ptr noundef %33, i32 noundef %34, i32 noundef %37, i32 noundef %38, ptr noundef %9, ptr noundef @.str.98, ptr noundef %41)
  store ptr %42, ptr %11, align 8
  %43 = load ptr, ptr %11, align 8
  %44 = load ptr, ptr %7, align 8
  %45 = load i32, ptr %8, align 4
  %46 = load i32, ptr @ett_wifi_dpp_attr_header, align 4
  %47 = call ptr @proto_tree_add_subtree(ptr noundef %43, ptr noundef %44, i32 noundef %45, i32 noundef 4, i32 noundef %46, ptr noundef null, ptr noundef @.str.99)
  store ptr %47, ptr %13, align 8
  %48 = load ptr, ptr %13, align 8
  %49 = load i32, ptr @hf_wifi_dpp_ie_attr_id, align 4
  %50 = load ptr, ptr %7, align 8
  %51 = load i32, ptr %8, align 4
  %52 = call ptr @proto_tree_add_item(ptr noundef %48, i32 noundef %49, ptr noundef %50, i32 noundef %51, i32 noundef 2, i32 noundef -2147483648)
  %53 = load i32, ptr %8, align 4
  %54 = add i32 %53, 2
  store i32 %54, ptr %8, align 4
  %55 = load ptr, ptr %13, align 8
  %56 = load i32, ptr @hf_wifi_dpp_ie_attr_len, align 4
  %57 = load ptr, ptr %7, align 8
  %58 = load i32, ptr %8, align 4
  %59 = call ptr @proto_tree_add_item(ptr noundef %55, i32 noundef %56, ptr noundef %57, i32 noundef %58, i32 noundef 2, i32 noundef -2147483648)
  %60 = load i32, ptr %8, align 4
  %61 = add i32 %60, 2
  store i32 %61, ptr %8, align 4
  %62 = load ptr, ptr %11, align 8
  %63 = load ptr, ptr %7, align 8
  %64 = load i32, ptr %8, align 4
  %65 = load i16, ptr %15, align 2
  %66 = zext i16 %65 to i32
  %67 = load i32, ptr @ett_wifi_dpp_attr_value, align 4
  %68 = call ptr @proto_tree_add_subtree(ptr noundef %62, ptr noundef %63, i32 noundef %64, i32 noundef %66, i32 noundef %67, ptr noundef null, ptr noundef @.str.100)
  store ptr %68, ptr %12, align 8
  %69 = load i16, ptr %14, align 2
  %70 = zext i16 %69 to i32
  switch i32 %70, label %216 [
    i32 4096, label %71
    i32 4097, label %86
    i32 4098, label %94
    i32 4105, label %102
    i32 4099, label %102
    i32 4118, label %123
    i32 4114, label %129
    i32 4104, label %129
    i32 4102, label %135
    i32 4117, label %141
    i32 4115, label %149
    i32 4100, label %157
    i32 4109, label %165
    i32 4101, label %173
    i32 4120, label %181
    i32 4121, label %193
    i32 4128, label %199
    i32 4129, label %207
    i32 4106, label %215
    i32 4107, label %215
    i32 4108, label %215
    i32 4110, label %215
    i32 4111, label %215
    i32 4116, label %215
  ]

71:                                               ; preds = %24
  %72 = load ptr, ptr %7, align 8
  %73 = load i32, ptr %8, align 4
  %74 = call zeroext i8 @tvb_get_guint8(ptr noundef %72, i32 noundef %73)
  store i8 %74, ptr %10, align 1
  %75 = load ptr, ptr %9, align 8
  %76 = load i8, ptr %10, align 1
  %77 = zext i8 %76 to i32
  %78 = call ptr @val_to_str(i32 noundef %77, ptr noundef @dpp_status_codes, ptr noundef @.str.4)
  call void (ptr, ptr, ...) @proto_item_append_text(ptr noundef %75, ptr noundef @.str.5, ptr noundef %78)
  %79 = load ptr, ptr %12, align 8
  %80 = load i32, ptr @hf_wifi_dpp_status, align 4
  %81 = load ptr, ptr %7, align 8
  %82 = load i32, ptr %8, align 4
  %83 = load i16, ptr %15, align 2
  %84 = zext i16 %83 to i32
  %85 = call ptr @proto_tree_add_item(ptr noundef %79, i32 noundef %80, ptr noundef %81, i32 noundef %82, i32 noundef %84, i32 noundef -2147483648)
  br label %224

86:                                               ; preds = %24
  %87 = load ptr, ptr %12, align 8
  %88 = load i32, ptr @hf_wifi_dpp_init_hash, align 4
  %89 = load ptr, ptr %7, align 8
  %90 = load i32, ptr %8, align 4
  %91 = load i16, ptr %15, align 2
  %92 = zext i16 %91 to i32
  %93 = call ptr @proto_tree_add_item(ptr noundef %87, i32 noundef %88, ptr noundef %89, i32 noundef %90, i32 noundef %92, i32 noundef 0)
  br label %224

94:                                               ; preds = %24
  %95 = load ptr, ptr %12, align 8
  %96 = load i32, ptr @hf_wifi_dpp_resp_hash, align 4
  %97 = load ptr, ptr %7, align 8
  %98 = load i32, ptr %8, align 4
  %99 = load i16, ptr %15, align 2
  %100 = zext i16 %99 to i32
  %101 = call ptr @proto_tree_add_item(ptr noundef %95, i32 noundef %96, ptr noundef %97, i32 noundef %98, i32 noundef %100, i32 noundef 0)
  br label %224

102:                                              ; preds = %24, %24
  %103 = load ptr, ptr %12, align 8
  %104 = load i32, ptr @hf_wifi_dpp_key_x, align 4
  %105 = load ptr, ptr %7, align 8
  %106 = load i32, ptr %8, align 4
  %107 = load i16, ptr %15, align 2
  %108 = zext i16 %107 to i32
  %109 = sdiv i32 %108, 2
  %110 = call ptr @proto_tree_add_item(ptr noundef %103, i32 noundef %104, ptr noundef %105, i32 noundef %106, i32 noundef %109, i32 noundef 0)
  %111 = load ptr, ptr %12, align 8
  %112 = load i32, ptr @hf_wifi_dpp_key_y, align 4
  %113 = load ptr, ptr %7, align 8
  %114 = load i32, ptr %8, align 4
  %115 = load i16, ptr %15, align 2
  %116 = zext i16 %115 to i32
  %117 = sdiv i32 %116, 2
  %118 = add i32 %114, %117
  %119 = load i16, ptr %15, align 2
  %120 = zext i16 %119 to i32
  %121 = sdiv i32 %120, 2
  %122 = call ptr @proto_tree_add_item(ptr noundef %111, i32 noundef %112, ptr noundef %113, i32 noundef %118, i32 noundef %121, i32 noundef 0)
  br label %224

123:                                              ; preds = %24
  %124 = load ptr, ptr %12, align 8
  %125 = load i32, ptr @hf_wifi_dpp_trans_id, align 4
  %126 = load ptr, ptr %7, align 8
  %127 = load i32, ptr %8, align 4
  %128 = call ptr @proto_tree_add_item(ptr noundef %124, i32 noundef %125, ptr noundef %126, i32 noundef %127, i32 noundef 1, i32 noundef -2147483648)
  br label %224

129:                                              ; preds = %24, %24
  %130 = load ptr, ptr %12, align 8
  %131 = load i32, ptr @hf_wifi_dpp_finite_cyclic_group, align 4
  %132 = load ptr, ptr %7, align 8
  %133 = load i32, ptr %8, align 4
  %134 = call ptr @proto_tree_add_item(ptr noundef %130, i32 noundef %131, ptr noundef %132, i32 noundef %133, i32 noundef 2, i32 noundef -2147483648)
  br label %224

135:                                              ; preds = %24
  %136 = load ptr, ptr %12, align 8
  %137 = load i32, ptr @hf_wifi_dpp_capabilities, align 4
  %138 = load ptr, ptr %7, align 8
  %139 = load i32, ptr %8, align 4
  %140 = call ptr @proto_tree_add_item(ptr noundef %136, i32 noundef %137, ptr noundef %138, i32 noundef %139, i32 noundef 1, i32 noundef -2147483648)
  br label %224

141:                                              ; preds = %24
  %142 = load ptr, ptr %12, align 8
  %143 = load i32, ptr @hf_wifi_dpp_code_identifier, align 4
  %144 = load ptr, ptr %7, align 8
  %145 = load i32, ptr %8, align 4
  %146 = load i16, ptr %15, align 2
  %147 = zext i16 %146 to i32
  %148 = call ptr @proto_tree_add_item(ptr noundef %142, i32 noundef %143, ptr noundef %144, i32 noundef %145, i32 noundef %147, i32 noundef 2)
  br label %224

149:                                              ; preds = %24
  %150 = load ptr, ptr %12, align 8
  %151 = load i32, ptr @hf_wifi_dpp_enc_key_attribute, align 4
  %152 = load ptr, ptr %7, align 8
  %153 = load i32, ptr %8, align 4
  %154 = load i16, ptr %15, align 2
  %155 = zext i16 %154 to i32
  %156 = call ptr @proto_tree_add_item(ptr noundef %150, i32 noundef %151, ptr noundef %152, i32 noundef %153, i32 noundef %155, i32 noundef 0)
  br label %224

157:                                              ; preds = %24
  %158 = load ptr, ptr %12, align 8
  %159 = load i32, ptr @hf_wifi_dpp_primary_wrapped_data, align 4
  %160 = load ptr, ptr %7, align 8
  %161 = load i32, ptr %8, align 4
  %162 = load i16, ptr %15, align 2
  %163 = zext i16 %162 to i32
  %164 = call ptr @proto_tree_add_item(ptr noundef %158, i32 noundef %159, ptr noundef %160, i32 noundef %161, i32 noundef %163, i32 noundef 0)
  br label %224

165:                                              ; preds = %24
  %166 = load ptr, ptr %12, align 8
  %167 = load i32, ptr @hf_wifi_dpp_connector_attr, align 4
  %168 = load ptr, ptr %7, align 8
  %169 = load i32, ptr %8, align 4
  %170 = load i16, ptr %15, align 2
  %171 = zext i16 %170 to i32
  %172 = call ptr @proto_tree_add_item(ptr noundef %166, i32 noundef %167, ptr noundef %168, i32 noundef %169, i32 noundef %171, i32 noundef 0)
  br label %224

173:                                              ; preds = %24
  %174 = load ptr, ptr %12, align 8
  %175 = load i32, ptr @hf_wifi_dpp_initiator_nonce, align 4
  %176 = load ptr, ptr %7, align 8
  %177 = load i32, ptr %8, align 4
  %178 = load i16, ptr %15, align 2
  %179 = zext i16 %178 to i32
  %180 = call ptr @proto_tree_add_item(ptr noundef %174, i32 noundef %175, ptr noundef %176, i32 noundef %177, i32 noundef %179, i32 noundef 0)
  br label %224

181:                                              ; preds = %24
  %182 = load ptr, ptr %12, align 8
  %183 = load i32, ptr @hf_wifi_dpp_operating_class, align 4
  %184 = load ptr, ptr %7, align 8
  %185 = load i32, ptr %8, align 4
  %186 = call ptr @proto_tree_add_item(ptr noundef %182, i32 noundef %183, ptr noundef %184, i32 noundef %185, i32 noundef 1, i32 noundef 0)
  %187 = load ptr, ptr %12, align 8
  %188 = load i32, ptr @hf_wifi_dpp_channel, align 4
  %189 = load ptr, ptr %7, align 8
  %190 = load i32, ptr %8, align 4
  %191 = add i32 %190, 1
  %192 = call ptr @proto_tree_add_item(ptr noundef %187, i32 noundef %188, ptr noundef %189, i32 noundef %191, i32 noundef 1, i32 noundef 0)
  br label %224

193:                                              ; preds = %24
  %194 = load ptr, ptr %12, align 8
  %195 = load i32, ptr @hf_wifi_dpp_protocol_version, align 4
  %196 = load ptr, ptr %7, align 8
  %197 = load i32, ptr %8, align 4
  %198 = call ptr @proto_tree_add_item(ptr noundef %194, i32 noundef %195, ptr noundef %196, i32 noundef %197, i32 noundef 1, i32 noundef 0)
  br label %224

199:                                              ; preds = %24
  %200 = load ptr, ptr %12, align 8
  %201 = load i32, ptr @hf_wifi_dpp_a_nonce, align 4
  %202 = load ptr, ptr %7, align 8
  %203 = load i32, ptr %8, align 4
  %204 = load i16, ptr %15, align 2
  %205 = zext i16 %204 to i32
  %206 = call ptr @proto_tree_add_item(ptr noundef %200, i32 noundef %201, ptr noundef %202, i32 noundef %203, i32 noundef %205, i32 noundef 0)
  br label %224

207:                                              ; preds = %24
  %208 = load ptr, ptr %12, align 8
  %209 = load i32, ptr @hf_wifi_dpp_e_prime_id, align 4
  %210 = load ptr, ptr %7, align 8
  %211 = load i32, ptr %8, align 4
  %212 = load i16, ptr %15, align 2
  %213 = zext i16 %212 to i32
  %214 = call ptr @proto_tree_add_item(ptr noundef %208, i32 noundef %209, ptr noundef %210, i32 noundef %211, i32 noundef %213, i32 noundef 0)
  br label %224

215:                                              ; preds = %24, %24, %24, %24, %24, %24
  br label %216

216:                                              ; preds = %215, %24
  %217 = load ptr, ptr %12, align 8
  %218 = load i32, ptr @hf_wifi_dpp_ie_generic, align 4
  %219 = load ptr, ptr %7, align 8
  %220 = load i32, ptr %8, align 4
  %221 = load i16, ptr %15, align 2
  %222 = zext i16 %221 to i32
  %223 = call ptr @proto_tree_add_item(ptr noundef %217, i32 noundef %218, ptr noundef %219, i32 noundef %220, i32 noundef %222, i32 noundef 0)
  br label %224

224:                                              ; preds = %216, %207, %199, %193, %181, %173, %165, %157, %149, %141, %135, %129, %123, %102, %94, %86, %71
  %225 = load i16, ptr %15, align 2
  %226 = zext i16 %225 to i32
  %227 = load i32, ptr %8, align 4
  %228 = add i32 %227, %226
  store i32 %228, ptr %8, align 4
  %229 = load i16, ptr %15, align 2
  %230 = zext i16 %229 to i32
  %231 = add i32 %230, 4
  %232 = load i32, ptr %16, align 4
  %233 = add i32 %232, %231
  store i32 %233, ptr %16, align 4
  %234 = load i16, ptr %15, align 2
  %235 = zext i16 %234 to i32
  %236 = add i32 %235, 4
  %237 = load i32, ptr %17, align 4
  %238 = sub i32 %237, %236
  store i32 %238, ptr %17, align 4
  br label %21, !llvm.loop !4

239:                                              ; preds = %21
  %240 = load i32, ptr %16, align 4
  ret i32 %240
}