; Function Attrs: nounwind uwtable
define internal fastcc i32 @dissect_wifi_dpp_attributes(ptr noundef %0, ptr noundef %1, i32 noundef %2) unnamed_addr #0 {
  %4 = alloca ptr, align 8
  store ptr null, ptr %4, align 8
  %5 = tail call i32 @tvb_reported_length_remaining(ptr noundef %1, i32 noundef %2) #2
  %.not1 = icmp eq i32 %5, 0
  br i1 %.not1, label %._crit_edge, label %.lr.ph

.lr.ph:                                           ; preds = %3, %86
  %.04 = phi i32 [ %89, %86 ], [ %5, %3 ]
  %.01083 = phi i32 [ %88, %86 ], [ 0, %3 ]
  %.01092 = phi i32 [ %87, %86 ], [ %2, %3 ]
  %6 = call zeroext i16 @tvb_get_guint16(ptr noundef %1, i32 noundef %.01092, i32 noundef -2147483648) #2
  %7 = add i32 %.01092, 2
  %8 = call zeroext i16 @tvb_get_guint16(ptr noundef %1, i32 noundef %7, i32 noundef -2147483648) #2
  %9 = zext i16 %8 to i32
  %10 = add nuw nsw i32 %9, 4
  %11 = load i32, ptr @ett_wifi_dpp_attribute, align 4
  %12 = zext i16 %6 to i32
  %13 = call ptr @val_to_str(i32 noundef %12, ptr noundef nonnull @dpp_ie_attr_ids, ptr noundef nonnull @.str.4) #2
  %14 = call ptr (ptr, ptr, i32, i32, i32, ptr, ptr, ...) @proto_tree_add_subtree_format(ptr noundef %0, ptr noundef %1, i32 noundef %.01092, i32 noundef %10, i32 noundef %11, ptr noundef nonnull %4, ptr noundef nonnull @.str.98, ptr noundef %13) #2
  %15 = load i32, ptr @ett_wifi_dpp_attr_header, align 4
  %16 = call ptr @proto_tree_add_subtree(ptr noundef %14, ptr noundef %1, i32 noundef %.01092, i32 noundef 4, i32 noundef %15, ptr noundef null, ptr noundef nonnull @.str.99) #2
  %17 = load i32, ptr @hf_wifi_dpp_ie_attr_id, align 4
  %18 = call ptr @proto_tree_add_item(ptr noundef %16, i32 noundef %17, ptr noundef %1, i32 noundef %.01092, i32 noundef 2, i32 noundef -2147483648) #2
  %19 = load i32, ptr @hf_wifi_dpp_ie_attr_len, align 4
  %20 = call ptr @proto_tree_add_item(ptr noundef %16, i32 noundef %19, ptr noundef %1, i32 noundef %7, i32 noundef 2, i32 noundef -2147483648) #2
  %21 = add i32 %.01092, 4
  %22 = load i32, ptr @ett_wifi_dpp_attr_value, align 4
  %23 = call ptr @proto_tree_add_subtree(ptr noundef %14, ptr noundef %1, i32 noundef %21, i32 noundef %9, i32 noundef %22, ptr noundef null, ptr noundef nonnull @.str.100) #2
  switch i16 %6, label %83 [
    i16 4096, label %24
    i16 4097, label %31
    i16 4098, label %34
    i16 4105, label %37
    i16 4099, label %37
    i16 4118, label %44
    i16 4114, label %47
    i16 4104, label %47
    i16 4102, label %50
    i16 4117, label %53
    i16 4115, label %56
    i16 4100, label %59
    i16 4109, label %62
    i16 4101, label %65
    i16 4120, label %68
    i16 4121, label %74
    i16 4128, label %77
    i16 4129, label %80
  ]

24:                                               ; preds = %.lr.ph
  %25 = call zeroext i8 @tvb_get_guint8(ptr noundef %1, i32 noundef %21) #2
  %26 = load ptr, ptr %4, align 8
  %27 = zext i8 %25 to i32
  %28 = call ptr @val_to_str(i32 noundef %27, ptr noundef nonnull @dpp_status_codes, ptr noundef nonnull @.str.4) #2
  call void (ptr, ptr, ...) @proto_item_append_text(ptr noundef %26, ptr noundef nonnull @.str.5, ptr noundef %28) #2
  %29 = load i32, ptr @hf_wifi_dpp_status, align 4
  %30 = call ptr @proto_tree_add_item(ptr noundef %23, i32 noundef %29, ptr noundef %1, i32 noundef %21, i32 noundef %9, i32 noundef -2147483648) #2
  br label %86

31:                                               ; preds = %.lr.ph
  %32 = load i32, ptr @hf_wifi_dpp_init_hash, align 4
  %33 = call ptr @proto_tree_add_item(ptr noundef %23, i32 noundef %32, ptr noundef %1, i32 noundef %21, i32 noundef %9, i32 noundef 0) #2
  br label %86

34:                                               ; preds = %.lr.ph
  %35 = load i32, ptr @hf_wifi_dpp_resp_hash, align 4
  %36 = call ptr @proto_tree_add_item(ptr noundef %23, i32 noundef %35, ptr noundef %1, i32 noundef %21, i32 noundef %9, i32 noundef 0) #2
  br label %86

37:                                               ; preds = %.lr.ph, %.lr.ph
  %38 = load i32, ptr @hf_wifi_dpp_key_x, align 4
  %39 = lshr i32 %9, 1
  %40 = call ptr @proto_tree_add_item(ptr noundef %23, i32 noundef %38, ptr noundef %1, i32 noundef %21, i32 noundef %39, i32 noundef 0) #2
  %41 = load i32, ptr @hf_wifi_dpp_key_y, align 4
  %42 = add i32 %39, %21
  %43 = call ptr @proto_tree_add_item(ptr noundef %23, i32 noundef %41, ptr noundef %1, i32 noundef %42, i32 noundef %39, i32 noundef 0) #2
  br label %86

44:                                               ; preds = %.lr.ph
  %45 = load i32, ptr @hf_wifi_dpp_trans_id, align 4
  %46 = call ptr @proto_tree_add_item(ptr noundef %23, i32 noundef %45, ptr noundef %1, i32 noundef %21, i32 noundef 1, i32 noundef -2147483648) #2
  br label %86

47:                                               ; preds = %.lr.ph, %.lr.ph
  %48 = load i32, ptr @hf_wifi_dpp_finite_cyclic_group, align 4
  %49 = call ptr @proto_tree_add_item(ptr noundef %23, i32 noundef %48, ptr noundef %1, i32 noundef %21, i32 noundef 2, i32 noundef -2147483648) #2
  br label %86

50:                                               ; preds = %.lr.ph
  %51 = load i32, ptr @hf_wifi_dpp_capabilities, align 4
  %52 = call ptr @proto_tree_add_item(ptr noundef %23, i32 noundef %51, ptr noundef %1, i32 noundef %21, i32 noundef 1, i32 noundef -2147483648) #2
  br label %86

53:                                               ; preds = %.lr.ph
  %54 = load i32, ptr @hf_wifi_dpp_code_identifier, align 4
  %55 = call ptr @proto_tree_add_item(ptr noundef %23, i32 noundef %54, ptr noundef %1, i32 noundef %21, i32 noundef %9, i32 noundef 2) #2
  br label %86

56:                                               ; preds = %.lr.ph
  %57 = load i32, ptr @hf_wifi_dpp_enc_key_attribute, align 4
  %58 = call ptr @proto_tree_add_item(ptr noundef %23, i32 noundef %57, ptr noundef %1, i32 noundef %21, i32 noundef %9, i32 noundef 0) #2
  br label %86

59:                                               ; preds = %.lr.ph
  %60 = load i32, ptr @hf_wifi_dpp_primary_wrapped_data, align 4
  %61 = call ptr @proto_tree_add_item(ptr noundef %23, i32 noundef %60, ptr noundef %1, i32 noundef %21, i32 noundef %9, i32 noundef 0) #2
  br label %86

62:                                               ; preds = %.lr.ph
  %63 = load i32, ptr @hf_wifi_dpp_connector_attr, align 4
  %64 = call ptr @proto_tree_add_item(ptr noundef %23, i32 noundef %63, ptr noundef %1, i32 noundef %21, i32 noundef %9, i32 noundef 0) #2
  br label %86

65:                                               ; preds = %.lr.ph
  %66 = load i32, ptr @hf_wifi_dpp_initiator_nonce, align 4
  %67 = call ptr @proto_tree_add_item(ptr noundef %23, i32 noundef %66, ptr noundef %1, i32 noundef %21, i32 noundef %9, i32 noundef 0) #2
  br label %86

68:                                               ; preds = %.lr.ph
  %69 = load i32, ptr @hf_wifi_dpp_operating_class, align 4
  %70 = call ptr @proto_tree_add_item(ptr noundef %23, i32 noundef %69, ptr noundef %1, i32 noundef %21, i32 noundef 1, i32 noundef 0) #2
  %71 = load i32, ptr @hf_wifi_dpp_channel, align 4
  %72 = add i32 %.01092, 5
  %73 = call ptr @proto_tree_add_item(ptr noundef %23, i32 noundef %71, ptr noundef %1, i32 noundef %72, i32 noundef 1, i32 noundef 0) #2
  br label %86

74:                                               ; preds = %.lr.ph
  %75 = load i32, ptr @hf_wifi_dpp_protocol_version, align 4
  %76 = call ptr @proto_tree_add_item(ptr noundef %23, i32 noundef %75, ptr noundef %1, i32 noundef %21, i32 noundef 1, i32 noundef 0) #2
  br label %86

77:                                               ; preds = %.lr.ph
  %78 = load i32, ptr @hf_wifi_dpp_a_nonce, align 4
  %79 = call ptr @proto_tree_add_item(ptr noundef %23, i32 noundef %78, ptr noundef %1, i32 noundef %21, i32 noundef %9, i32 noundef 0) #2
  br label %86

80:                                               ; preds = %.lr.ph
  %81 = load i32, ptr @hf_wifi_dpp_e_prime_id, align 4
  %82 = call ptr @proto_tree_add_item(ptr noundef %23, i32 noundef %81, ptr noundef %1, i32 noundef %21, i32 noundef %9, i32 noundef 0) #2
  br label %86

83:                                               ; preds = %.lr.ph
  %84 = load i32, ptr @hf_wifi_dpp_ie_generic, align 4
  %85 = call ptr @proto_tree_add_item(ptr noundef %23, i32 noundef %84, ptr noundef %1, i32 noundef %21, i32 noundef %9, i32 noundef 0) #2
  br label %86

86:                                               ; preds = %83, %80, %77, %74, %68, %65, %62, %59, %56, %53, %50, %47, %44, %37, %34, %31, %24
  %87 = add i32 %21, %9
  %88 = add i32 %10, %.01083
  %89 = sub i32 %.04, %10
  %.not = icmp eq i32 %89, 0
  br i1 %.not, label %._crit_edge, label %.lr.ph, !llvm.loop !4

._crit_edge:                                      ; preds = %86, %3
  %.0108.lcssa = phi i32 [ 0, %3 ], [ %88, %86 ]
  ret i32 %.0108.lcssa
}